ccopy_reg
_reconstructor
p0
(cpciedevsettings
PCIESettings
p1
c__builtin__
object
p2
Ntp3
Rp4
(dp5
S'ch2shift'
p6
I255
sS'framelength'
p7
I49140
sS'ch2amp'
p8
I2
sS'ch1shift'
p9
I255
sS'ch1amp'
p10
I221
sS'framecount'
p11
I1500
sS'ch2count'
p12
I0
sS'ch1count'
p13
I99
sb.